target datalayout = "e-m:e-p270:32:32-p271:32:32-p272:64:64-i64:64-i128:128-f80:128-n8:16:32:64-S128"
target triple = "x86_64-unknown-linux-gnu"

%struct.b2Vec2 = type { float, float }
%struct.b2JointDef = type <{ i32, [4 x i8], %struct.b2JointUserData, ptr, ptr, i8, [7 x i8] }>
%struct.b2JointUserData = type { i64 }
%struct.b2DistanceJointDef = type { %struct.b2JointDef.base, %struct.b2Vec2, %struct.b2Vec2, float, float, float, float, float }
%struct.b2JointDef.base = type <{ i32, [4 x i8], %struct.b2JointUserData, ptr, ptr, i8 }>
%class.b2Body = type { i32, i16, i32, %struct.b2Transform, %struct.b2Sweep, %struct.b2Vec2, float, %struct.b2Vec2, float, ptr, ptr, ptr, ptr, i32, ptr, ptr, float, float, float, float, float, float, float, float, %struct.b2BodyUserData }
%struct.b2Transform = type { %struct.b2Vec2, %struct.b2Rot }
%struct.b2Rot = type { float, float }
%struct.b2Sweep = type { %struct.b2Vec2, %struct.b2Vec2, %struct.b2Vec2, float, float, float }
%struct.b2BodyUserData = type { i64 }

; Function Attrs: mustprogress nounwind uwtable
define linkonce_odr hidden void @_ZN6b2Vec2C2Eff(ptr noundef nonnull align 4 dereferenceable(8) %this, float noundef %xIn, float noundef %yIn) unnamed_addr #2 comdat align 2 {
entry:
  %this.addr = alloca ptr, align 8
  %xIn.addr = alloca float, align 4
  %yIn.addr = alloca float, align 4
  store ptr %this, ptr %this.addr, align 8
  store float %xIn, ptr %xIn.addr, align 4
  store float %yIn, ptr %yIn.addr, align 4
  %this1 = load ptr, ptr %this.addr, align 8
  %x = getelementptr inbounds %struct.b2Vec2, ptr %this1, i32 0, i32 0
  %0 = load float, ptr %xIn.addr, align 4
  store float %0, ptr %x, align 4
  %y = getelementptr inbounds %struct.b2Vec2, ptr %this1, i32 0, i32 1
  %1 = load float, ptr %yIn.addr, align 4
  store float %1, ptr %y, align 4
  ret void
}

; Function Attrs: mustprogress uwtable
define linkonce_odr hidden <2 x float> @_Z6b2MulTRK11b2TransformRK6b2Vec2(ptr noundef nonnull align 4 dereferenceable(16) %T, ptr noundef nonnull align 4 dereferenceable(8) %v) #0 comdat {
entry:
  %retval = alloca %struct.b2Vec2, align 4
  %T.addr = alloca ptr, align 8
  %v.addr = alloca ptr, align 8
  %px = alloca float, align 4
  %py = alloca float, align 4
  %x5 = alloca float, align 4
  %y8 = alloca float, align 4
  store ptr %T, ptr %T.addr, align 8
  store ptr %v, ptr %v.addr, align 8
  %0 = load ptr, ptr %v.addr, align 8
  %x = getelementptr inbounds %struct.b2Vec2, ptr %0, i32 0, i32 0
  %1 = load float, ptr %x, align 4
  %2 = load ptr, ptr %T.addr, align 8
  %p = getelementptr inbounds %struct.b2Transform, ptr %2, i32 0, i32 0
  %x1 = getelementptr inbounds %struct.b2Vec2, ptr %p, i32 0, i32 0
  %3 = load float, ptr %x1, align 4
  %sub = fsub float %1, %3
  store float %sub, ptr %px, align 4
  %4 = load ptr, ptr %v.addr, align 8
  %y = getelementptr inbounds %struct.b2Vec2, ptr %4, i32 0, i32 1
  %5 = load float, ptr %y, align 4
  %6 = load ptr, ptr %T.addr, align 8
  %p2 = getelementptr inbounds %struct.b2Transform, ptr %6, i32 0, i32 0
  %y3 = getelementptr inbounds %struct.b2Vec2, ptr %p2, i32 0, i32 1
  %7 = load float, ptr %y3, align 4
  %sub4 = fsub float %5, %7
  store float %sub4, ptr %py, align 4
  %8 = load ptr, ptr %T.addr, align 8
  %q = getelementptr inbounds %struct.b2Transform, ptr %8, i32 0, i32 1
  %c = getelementptr inbounds %struct.b2Rot, ptr %q, i32 0, i32 1
  %9 = load float, ptr %c, align 4
  %10 = load float, ptr %px, align 4
  %11 = load ptr, ptr %T.addr, align 8
  %q6 = getelementptr inbounds %struct.b2Transform, ptr %11, i32 0, i32 1
  %s = getelementptr inbounds %struct.b2Rot, ptr %q6, i32 0, i32 0
  %12 = load float, ptr %s, align 4
  %13 = load float, ptr %py, align 4
  %mul7 = fmul float %12, %13
  %14 = call float @llvm.fmuladd.f32(float %9, float %10, float %mul7)
  store float %14, ptr %x5, align 4
  %15 = load ptr, ptr %T.addr, align 8
  %q9 = getelementptr inbounds %struct.b2Transform, ptr %15, i32 0, i32 1
  %s10 = getelementptr inbounds %struct.b2Rot, ptr %q9, i32 0, i32 0
  %16 = load float, ptr %s10, align 4
  %fneg = fneg float %16
  %17 = load float, ptr %px, align 4
  %18 = load ptr, ptr %T.addr, align 8
  %q11 = getelementptr inbounds %struct.b2Transform, ptr %18, i32 0, i32 1
  %c12 = getelementptr inbounds %struct.b2Rot, ptr %q11, i32 0, i32 1
  %19 = load float, ptr %c12, align 4
  %20 = load float, ptr %py, align 4
  %mul13 = fmul float %19, %20
  %21 = call float @llvm.fmuladd.f32(float %fneg, float %17, float %mul13)
  store float %21, ptr %y8, align 4
  %22 = load float, ptr %x5, align 4
  %23 = load float, ptr %y8, align 4
  call void @_ZN6b2Vec2C2Eff(ptr noundef nonnull align 4 dereferenceable(8) %retval, float noundef %22, float noundef %23)
  %24 = load <2 x float>, ptr %retval, align 4
  ret <2 x float> %24
}

; Function Attrs: mustprogress nounwind uwtable
define linkonce_odr hidden noundef float @_Z5b2MaxIfET_S0_S0_(float noundef %a, float noundef %b) #2 comdat {
entry:
  %a.addr = alloca float, align 4
  %b.addr = alloca float, align 4
  store float %a, ptr %a.addr, align 4
  store float %b, ptr %b.addr, align 4
  %0 = load float, ptr %a.addr, align 4
  %1 = load float, ptr %b.addr, align 4
  %cmp = fcmp ogt float %0, %1
  br i1 %cmp, label %cond.true, label %cond.false

cond.true:                                        ; preds = %entry
  %2 = load float, ptr %a.addr, align 4
  br label %cond.end

cond.false:                                       ; preds = %entry
  %3 = load float, ptr %b.addr, align 4
  br label %cond.end

cond.end:                                         ; preds = %cond.false, %cond.true
  %cond = phi float [ %2, %cond.true ], [ %3, %cond.false ]
  ret float %cond
}

; Function Attrs: mustprogress nounwind uwtable
define linkonce_odr hidden noundef float @_ZNK6b2Vec26LengthEv(ptr noundef nonnull align 4 dereferenceable(8) %this) #2 comdat align 2 {
entry:
  %this.addr = alloca ptr, align 8
  store ptr %this, ptr %this.addr, align 8
  %this1 = load ptr, ptr %this.addr, align 8
  %x = getelementptr inbounds %struct.b2Vec2, ptr %this1, i32 0, i32 0
  %0 = load float, ptr %x, align 4
  %x2 = getelementptr inbounds %struct.b2Vec2, ptr %this1, i32 0, i32 0
  %1 = load float, ptr %x2, align 4
  %y = getelementptr inbounds %struct.b2Vec2, ptr %this1, i32 0, i32 1
  %2 = load float, ptr %y, align 4
  %y3 = getelementptr inbounds %struct.b2Vec2, ptr %this1, i32 0, i32 1
  %3 = load float, ptr %y3, align 4
  %mul4 = fmul float %2, %3
  %4 = call float @llvm.fmuladd.f32(float %0, float %1, float %mul4)
  %call = call float @sqrtf(float noundef %4) #8
  ret float %call
}

; Function Attrs: mustprogress uwtable
define linkonce_odr hidden <2 x float> @_ZmiRK6b2Vec2S1_(ptr noundef nonnull align 4 dereferenceable(8) %a, ptr noundef nonnull align 4 dereferenceable(8) %b) #0 comdat {
entry:
  %retval = alloca %struct.b2Vec2, align 4
  %a.addr = alloca ptr, align 8
  %b.addr = alloca ptr, align 8
  store ptr %a, ptr %a.addr, align 8
  store ptr %b, ptr %b.addr, align 8
  %0 = load ptr, ptr %a.addr, align 8
  %x = getelementptr inbounds %struct.b2Vec2, ptr %0, i32 0, i32 0
  %1 = load float, ptr %x, align 4
  %2 = load ptr, ptr %b.addr, align 8
  %x1 = getelementptr inbounds %struct.b2Vec2, ptr %2, i32 0, i32 0
  %3 = load float, ptr %x1, align 4
  %sub = fsub float %1, %3
  %4 = load ptr, ptr %a.addr, align 8
  %y = getelementptr inbounds %struct.b2Vec2, ptr %4, i32 0, i32 1
  %5 = load float, ptr %y, align 4
  %6 = load ptr, ptr %b.addr, align 8
  %y2 = getelementptr inbounds %struct.b2Vec2, ptr %6, i32 0, i32 1
  %7 = load float, ptr %y2, align 4
  %sub3 = fsub float %5, %7
  call void @_ZN6b2Vec2C2Eff(ptr noundef nonnull align 4 dereferenceable(8) %retval, float noundef %sub, float noundef %sub3)
  %8 = load <2 x float>, ptr %retval, align 4
  ret <2 x float> %8
}

; Function Attrs: mustprogress uwtable
define linkonce_odr hidden <2 x float> @_ZNK6b2Body13GetLocalPointERK6b2Vec2(ptr noundef nonnull align 8 dereferenceable(184) %this, ptr noundef nonnull align 4 dereferenceable(8) %worldPoint) #0 comdat align 2 {
entry:
  %retval = alloca %struct.b2Vec2, align 4
  %this.addr = alloca ptr, align 8
  %worldPoint.addr = alloca ptr, align 8
  store ptr %this, ptr %this.addr, align 8
  store ptr %worldPoint, ptr %worldPoint.addr, align 8
  %this1 = load ptr, ptr %this.addr, align 8
  %m_xf = getelementptr inbounds %class.b2Body, ptr %this1, i32 0, i32 3
  %0 = load ptr, ptr %worldPoint.addr, align 8
  %call = call <2 x float> @_Z6b2MulTRK11b2TransformRK6b2Vec2(ptr noundef nonnull align 4 dereferenceable(16) %m_xf, ptr noundef nonnull align 4 dereferenceable(8) %0)
  store <2 x float> %call, ptr %retval, align 4
  %1 = load <2 x float>, ptr %retval, align 4
  ret <2 x float> %1
}

; Function Attrs: mustprogress uwtable
define void @_ZN18b2DistanceJointDef10InitializeEP6b2BodyS1_RK6b2Vec2S4_(ptr noundef nonnull align 8 dereferenceable(72) %this, ptr noundef %b1, ptr noundef %b2, ptr noundef nonnull align 4 dereferenceable(8) %anchor1, ptr noundef nonnull align 4 dereferenceable(8) %anchor2) #0 align 2 {
entry:
  %this.addr = alloca ptr, align 8
  %b1.addr = alloca ptr, align 8
  %b2.addr = alloca ptr, align 8
  %anchor1.addr = alloca ptr, align 8
  %anchor2.addr = alloca ptr, align 8
  %ref.tmp = alloca %struct.b2Vec2, align 4
  %ref.tmp3 = alloca %struct.b2Vec2, align 4
  %d = alloca %struct.b2Vec2, align 4
  store ptr %this, ptr %this.addr, align 8
  store ptr %b1, ptr %b1.addr, align 8
  store ptr %b2, ptr %b2.addr, align 8
  store ptr %anchor1, ptr %anchor1.addr, align 8
  store ptr %anchor2, ptr %anchor2.addr, align 8
  %this1 = load ptr, ptr %this.addr, align 8
  %0 = load ptr, ptr %b1.addr, align 8
  %bodyA = getelementptr inbounds %struct.b2JointDef, ptr %this1, i32 0, i32 3
  store ptr %0, ptr %bodyA, align 8
  %1 = load ptr, ptr %b2.addr, align 8
  %bodyB = getelementptr inbounds %struct.b2JointDef, ptr %this1, i32 0, i32 4
  store ptr %1, ptr %bodyB, align 8
  %bodyA2 = getelementptr inbounds %struct.b2JointDef, ptr %this1, i32 0, i32 3
  %2 = load ptr, ptr %bodyA2, align 8
  %3 = load ptr, ptr %anchor1.addr, align 8
  %call = call <2 x float> @_ZNK6b2Body13GetLocalPointERK6b2Vec2(ptr noundef nonnull align 8 dereferenceable(184) %2, ptr noundef nonnull align 4 dereferenceable(8) %3)
  store <2 x float> %call, ptr %ref.tmp, align 4
  %localAnchorA = getelementptr inbounds %struct.b2DistanceJointDef, ptr %this1, i32 0, i32 1
  call void @llvm.memcpy.p0.p0.i64(ptr align 4 %localAnchorA, ptr align 4 %ref.tmp, i64 8, i1 false)
  %bodyB4 = getelementptr inbounds %struct.b2JointDef, ptr %this1, i32 0, i32 4
  %4 = load ptr, ptr %bodyB4, align 8
  %5 = load ptr, ptr %anchor2.addr, align 8
  %call5 = call <2 x float> @_ZNK6b2Body13GetLocalPointERK6b2Vec2(ptr noundef nonnull align 8 dereferenceable(184) %4, ptr noundef nonnull align 4 dereferenceable(8) %5)
  store <2 x float> %call5, ptr %ref.tmp3, align 4
  %localAnchorB = getelementptr inbounds %struct.b2DistanceJointDef, ptr %this1, i32 0, i32 2
  call void @llvm.memcpy.p0.p0.i64(ptr align 4 %localAnchorB, ptr align 4 %ref.tmp3, i64 8, i1 false)
  %6 = load ptr, ptr %anchor2.addr, align 8
  %7 = load ptr, ptr %anchor1.addr, align 8
  %call6 = call <2 x float> @_ZmiRK6b2Vec2S1_(ptr noundef nonnull align 4 dereferenceable(8) %6, ptr noundef nonnull align 4 dereferenceable(8) %7)
  store <2 x float> %call6, ptr %d, align 4
  %call7 = call noundef float @_ZNK6b2Vec26LengthEv(ptr noundef nonnull align 4 dereferenceable(8) %d)
  %call8 = call noundef float @_Z5b2MaxIfET_S0_S0_(float noundef %call7, float noundef 0x3F747AE140000000)
  %length = getelementptr inbounds %struct.b2DistanceJointDef, ptr %this1, i32 0, i32 3
  store float %call8, ptr %length, align 4
  %length9 = getelementptr inbounds %struct.b2DistanceJointDef, ptr %this1, i32 0, i32 3
  %8 = load float, ptr %length9, align 4
  %minLength = getelementptr inbounds %struct.b2DistanceJointDef, ptr %this1, i32 0, i32 4
  store float %8, ptr %minLength, align 8
  %length10 = getelementptr inbounds %struct.b2DistanceJointDef, ptr %this1, i32 0, i32 3
  %9 = load float, ptr %length10, align 4
  %maxLength = getelementptr inbounds %struct.b2DistanceJointDef, ptr %this1, i32 0, i32 5
  store float %9, ptr %maxLength, align 4
  ret void
}